; Function Attrs: mustprogress uwtable
define double @cvGetRealND(ptr noundef %0, ptr noundef %1) local_unnamed_addr #0 personality ptr @__gxx_personality_v0 {
  %3 = alloca i32, align 4
  %4 = alloca %"class.std::__cxx11::basic_string", align 8
  %5 = alloca %"class.std::allocator", align 1
  call void @llvm.lifetime.start.p0(i64 4, ptr nonnull %3) #12
  store i32 0, ptr %3, align 4, !tbaa !26
  %.not = icmp eq ptr %0, null
  br i1 %.not, label %.split, label %7

.split:                                           ; preds = %2
  %6 = call ptr @cvPtrND(ptr noundef null, ptr noundef %1, ptr noundef nonnull %3, i32 noundef 1, ptr noundef null)
  br label %14

7:                                                ; preds = %2
  %8 = load i32, ptr %0, align 8, !tbaa !80
  %9 = and i32 %8, -65536
  %10 = icmp eq i32 %9, 1111752704
  br i1 %10, label %12, label %.split13

.split13:                                         ; preds = %7
  %11 = call ptr @cvPtrND(ptr noundef nonnull %0, ptr noundef %1, ptr noundef nonnull %3, i32 noundef 1, ptr noundef null)
  br label %14

12:                                               ; preds = %7
  %13 = call fastcc noundef ptr @_ZL13icvGetNodePtrP11CvSparseMatPKiPiiPj(ptr noundef %0, ptr noundef %1, ptr noundef nonnull %3, i32 noundef 0, ptr noundef null)
  br label %14

14:                                               ; preds = %.split, %.split13, %12
  %.011 = phi ptr [ %13, %12 ], [ %6, %.split ], [ %11, %.split13 ]
  %.not15 = icmp eq ptr %.011, null
  br i1 %.not15, label %_ZL10icvGetRealPKvi.exit, label %15

15:                                               ; preds = %14
  %16 = load i32, ptr %3, align 4, !tbaa !26
  %17 = and i32 %16, 4088
  %.not16 = icmp eq i32 %17, 0
  br i1 %.not16, label %28, label %18

18:                                               ; preds = %15
  call void @llvm.lifetime.start.p0(i64 32, ptr nonnull %4) #12
  call void @llvm.lifetime.start.p0(i64 1, ptr nonnull %5) #12
  call void @_ZNSt7__cxx1112basic_stringIcSt11char_traitsIcESaIcEEC2EPKcRKS3_(ptr noundef nonnull align 8 dereferenceable(32) %4, ptr noundef nonnull @.str.46, ptr noundef nonnull align 1 dereferenceable(1) %5)
  invoke void @_ZN2cv5errorEiRKNSt7__cxx1112basic_stringIcSt11char_traitsIcESaIcEEEPKcS9_i(i32 noundef -15, ptr noundef nonnull align 8 dereferenceable(32) %4, ptr noundef nonnull @__func__.cvGetRealND, ptr noundef nonnull @.str.1, i32 noundef 2152) #13
          to label %19 unwind label %20

19:                                               ; preds = %18
  unreachable

20:                                               ; preds = %18
  %21 = landingpad { ptr, i32 }
          cleanup
  %22 = load ptr, ptr %4, align 8, !tbaa !3
  %23 = getelementptr inbounds nuw i8, ptr %4, i64 16
  %24 = icmp eq ptr %22, %23
  br i1 %24, label %_ZNKSt7__cxx1112basic_stringIcSt11char_traitsIcESaIcEE11_M_is_localEv.exit.thread.i.i, label %_ZNKSt7__cxx1112basic_stringIcSt11char_traitsIcESaIcEE11_M_is_localEv.exit.i.i

_ZNKSt7__cxx1112basic_stringIcSt11char_traitsIcESaIcEE11_M_is_localEv.exit.thread.i.i: ; preds = %20
  %25 = getelementptr inbounds nuw i8, ptr %4, i64 8
  %26 = load i64, ptr %25, align 8, !tbaa !11
  %27 = icmp ult i64 %26, 16
  call void @llvm.assume(i1 %27)
  br label %_ZNSt7__cxx1112basic_stringIcSt11char_traitsIcESaIcEED2Ev.exit

_ZNKSt7__cxx1112basic_stringIcSt11char_traitsIcESaIcEE11_M_is_localEv.exit.i.i: ; preds = %20
  call void @_ZdlPv(ptr noundef %22) #14
  br label %_ZNSt7__cxx1112basic_stringIcSt11char_traitsIcESaIcEED2Ev.exit

_ZNSt7__cxx1112basic_stringIcSt11char_traitsIcESaIcEED2Ev.exit: ; preds = %_ZNKSt7__cxx1112basic_stringIcSt11char_traitsIcESaIcEE11_M_is_localEv.exit.i.i, %_ZNKSt7__cxx1112basic_stringIcSt11char_traitsIcESaIcEE11_M_is_localEv.exit.thread.i.i
  call void @llvm.lifetime.end.p0(i64 1, ptr nonnull %5) #12
  call void @llvm.lifetime.end.p0(i64 32, ptr nonnull %4) #12
  call void @llvm.lifetime.end.p0(i64 4, ptr nonnull %3) #12
  resume { ptr, i32 } %21

28:                                               ; preds = %15
  switch i32 %16, label %_ZL10icvGetRealPKvi.exit [
    i32 0, label %29
    i32 1, label %32
    i32 2, label %35
    i32 3, label %38
    i32 4, label %41
    i32 5, label %44
    i32 6, label %47
  ]

29:                                               ; preds = %28
  %30 = load i8, ptr %.011, align 1, !tbaa !23
  %31 = uitofp i8 %30 to double
  br label %_ZL10icvGetRealPKvi.exit

32:                                               ; preds = %28
  %33 = load i8, ptr %.011, align 1, !tbaa !23
  %34 = sitofp i8 %33 to double
  br label %_ZL10icvGetRealPKvi.exit

35:                                               ; preds = %28
  %36 = load i16, ptr %.011, align 2, !tbaa !127
  %37 = uitofp i16 %36 to double
  br label %_ZL10icvGetRealPKvi.exit

38:                                               ; preds = %28
  %39 = load i16, ptr %.011, align 2, !tbaa !127
  %40 = sitofp i16 %39 to double
  br label %_ZL10icvGetRealPKvi.exit

41:                                               ; preds = %28
  %42 = load i32, ptr %.011, align 4, !tbaa !26
  %43 = sitofp i32 %42 to double
  br label %_ZL10icvGetRealPKvi.exit

44:                                               ; preds = %28
  %45 = load float, ptr %.011, align 4, !tbaa !132
  %46 = fpext float %45 to double
  br label %_ZL10icvGetRealPKvi.exit

47:                                               ; preds = %28
  %48 = load double, ptr %.011, align 8, !tbaa !123
  br label %_ZL10icvGetRealPKvi.exit

_ZL10icvGetRealPKvi.exit:                         ; preds = %47, %44, %41, %38, %35, %32, %29, %28, %14
  %.012 = phi double [ 0.000000e+00, %14 ], [ %48, %47 ], [ %46, %44 ], [ %43, %41 ], [ %40, %38 ], [ %37, %35 ], [ %34, %32 ], [ %31, %29 ], [ 0.000000e+00, %28 ]
  call void @llvm.lifetime.end.p0(i64 4, ptr nonnull %3) #12
  ret double %.012
}